; ModuleID = '60/70.c'
source_filename = "60/70.c"
target datalayout = "e-m:e-p270:32:32-p271:32:32-p272:64:64-i64:64-f80:128-n8:16:32:64-S128"
target triple = "x86_64-pc-linux-gnu"

@.str = private unnamed_addr constant [3 x i8] c"%d\00", align 1
@.str.1 = private unnamed_addr constant [6 x i8] c"empty\00", align 1
@.str.2 = private unnamed_addr constant [7 x i8] c"%d %d\0A\00", align 1

; Function Attrs: noinline nounwind uwtable
define dso_local i32 @check(i32 %0) #0 {
  %2 = alloca i32, align 4
  %3 = alloca i32, align 4
  %4 = alloca i32, align 4
  %5 = alloca double, align 8
  store i32 %0, i32* %3, align 4
  %6 = load i32, i32* %3, align 4
  %7 = sitofp i32 %6 to double
  %8 = call double @sqrt(double %7) #3
  store double %8, double* %5, align 8
  store i32 2, i32* %4, align 4
  br label %9

9:                                                ; preds = %21, %1
  %10 = load i32, i32* %4, align 4
  %11 = sitofp i32 %10 to double
  %12 = load double, double* %5, align 8
  %13 = fcmp ole double %11, %12
  br i1 %13, label %14, label %24

14:                                               ; preds = %9
  %15 = load i32, i32* %3, align 4
  %16 = load i32, i32* %4, align 4
  %17 = srem i32 %15, %16
  %18 = icmp eq i32 %17, 0
  br i1 %18, label %19, label %20

19:                                               ; preds = %14
  br label %24

20:                                               ; preds = %14
  br label %21

21:                                               ; preds = %20
  %22 = load i32, i32* %4, align 4
  %23 = add nsw i32 %22, 1
  store i32 %23, i32* %4, align 4
  br label %9

24:                                               ; preds = %19, %9
  %25 = load i32, i32* %4, align 4
  %26 = sitofp i32 %25 to double
  %27 = load double, double* %5, align 8
  %28 = fcmp ogt double %26, %27
  br i1 %28, label %29, label %30

29:                                               ; preds = %24
  store i32 1, i32* %2, align 4
  br label %31

30:                                               ; preds = %24
  store i32 0, i32* %2, align 4
  br label %31

31:                                               ; preds = %30, %29
  %32 = load i32, i32* %2, align 4
  ret i32 %32
}

; Function Attrs: nounwind
declare dso_local double @sqrt(double) #1

; Function Attrs: noinline nounwind uwtable
define dso_local i32 @main() #0 {
  %1 = alloca i32, align 4
  %2 = alloca i32, align 4
  %3 = alloca i32, align 4
  store i32 0, i32* %1, align 4
  %4 = call i32 (i8*, ...) @__isoc99_scanf(i8* getelementptr inbounds ([3 x i8], [3 x i8]* @.str, i64 0, i64 0), i32* %2)
  %5 = load i32, i32* %2, align 4
  %6 = icmp sle i32 %5, 4
  br i1 %6, label %7, label %9

7:                                                ; preds = %0
  %8 = call i32 (i8*, ...) @printf(i8* getelementptr inbounds ([6 x i8], [6 x i8]* @.str.1, i64 0, i64 0))
  br label %9

9:                                                ; preds = %7, %0
  store i32 3, i32* %3, align 4
  br label %10

10:                                               ; preds = %30, %9
  %11 = load i32, i32* %3, align 4
  %12 = add nsw i32 %11, 2
  %13 = load i32, i32* %2, align 4
  %14 = icmp sle i32 %12, %13
  br i1 %14, label %15, label %33

15:                                               ; preds = %10
  %16 = load i32, i32* %3, align 4
  %17 = call i32 @check(i32 %16)
  %18 = icmp eq i32 %17, 1
  br i1 %18, label %19, label %29

19:                                               ; preds = %15
  %20 = load i32, i32* %3, align 4
  %21 = add nsw i32 %20, 2
  %22 = call i32 @check(i32 %21)
  %23 = icmp eq i32 %22, 1
  br i1 %23, label %24, label %29

24:                                               ; preds = %19
  %25 = load i32, i32* %3, align 4
  %26 = load i32, i32* %3, align 4
  %27 = add nsw i32 %26, 2
  %28 = call i32 (i8*, ...) @printf(i8* getelementptr inbounds ([7 x i8], [7 x i8]* @.str.2, i64 0, i64 0), i32 %25, i32 %27)
  br label %29

29:                                               ; preds = %24, %19, %15
  br label %30

30:                                               ; preds = %29
  %31 = load i32, i32* %3, align 4
  %32 = add nsw i32 %31, 2
  store i32 %32, i32* %3, align 4
  br label %10

33:                                               ; preds = %10
  ret i32 0
}

declare dso_local i32 @__isoc99_scanf(i8*, ...) #2

declare dso_local i32 @printf(i8*, ...) #2


!llvm.module.flags = !{!0}
!llvm.ident = !{!1}

!0 = !{i32 1, !"wchar_size", i32 4}
!1 = !{!"clang version 10.0.0-4ubuntu1 "}
